(ccopy_reg
_reconstructor
p1
(cinfo
MyDict
p2
c__builtin__
dict
p3
(dp4
V 
I2472
sV"
I44
sV(
I3
sV*
I2
sV,
I57
sV.
I171
sV0
I9
sV2
I10
sV:
I19
sV<
I7
sVa
I802
sVB
I11
sVD
I16
sVF
I21
sVH
I20
sVJ
I2
sVL
I21
sVN
I21
sVP
I20
sVR
I11
sVT
I49
sVV
I4
sVb
I166
sVd
I342
sVf
I257
sVh
I505
sVj
I31
sVl
I446
sVn
I779
sVp
I196
sVr
I565
sVt
I962
sVv
I111
sVx
I33
sVz
I9
sV!
I15
sV#
I3
sV'
I78
sV)
I3
sV-
I9
sV/
I2
sV1
I11
sV3
I7
sV5
I4
sV9
I3
sV=
I2
sV?
I36
sVA
I30
sVC
I24
sVE
I18
sVG
I11
sVI
I137
sVM
I15
sVO
I23
sVS
I28
sVU
I6
sVW
I26
sVY
I14
sV_
I5
sV\ud83d
I10
sVc
I246
sVe
I1180
sVg
I265
sVi
I730
sVk
I164
sVm
I259
sVo
I881
sVq
I10
sVs
I642
sVu
I391
sVw
I212
sVy
I312
stRp5
g1
(g2
g3
(dp6
Vnot_/
p7
I2
sVnot_.
p8
I171
sVnot_-
p9
I9
sVnot_,
p10
I57
sVnot_*
p11
I2
sVnot_)
p12
I3
sVnot_(
p13
I3
sVnot_'
p14
I78
sVnot_#
p15
I3
sVnot_"
p16
I44
sVnot_!
p17
I15
sVnot_ 
p18
I2472
sVnot_?
p19
I36
sVnot_=
p20
I2
sVnot_<
p21
I7
sVnot_:
p22
I19
sVnot_9
p23
I3
sVnot_5
p24
I4
sVnot_3
p25
I7
sVnot_2
p26
I10
sVnot_1
p27
I11
sVnot_0
p28
I9
sVnot_o
p29
I881
sVnot_n
p30
I779
sVnot_m
p31
I259
sVnot_l
p32
I446
sVnot_k
p33
I164
sVnot_j
p34
I31
sVnot_i
p35
I730
sVnot_h
p36
I505
sVnot_g
p37
I265
sVnot_f
p38
I257
sVnot_e
p39
I1180
sVnot_d
p40
I342
sVnot_c
p41
I246
sVnot_b
p42
I166
sVnot_a
p43
I802
sVnot_z
p44
I9
sVnot_y
p45
I312
sVnot_x
p46
I33
sVnot_w
p47
I212
sVnot_v
p48
I111
sVnot_u
p49
I391
sVnot_t
p50
I962
sVnot_s
p51
I642
sVnot_r
p52
I565
sVnot_q
p53
I10
sVnot_p
p54
I196
sVnot_O
p55
I23
sVnot_N
p56
I21
sVnot_M
p57
I15
sVnot_L
p58
I21
sVnot_J
p59
I2
sVnot_I
p60
I137
sVnot_H
p61
I20
sVnot_G
p62
I11
sVnot_F
p63
I21
sVnot_E
p64
I18
sVnot_D
p65
I16
sVnot_C
p66
I24
sVnot_B
p67
I11
sVnot_A
p68
I30
sVnot__
p69
I5
sVnot_Y
p70
I14
sVnot_W
p71
I26
sVnot_V
p72
I4
sVnot_U
p73
I6
sVnot_T
p74
I49
sVnot_S
p75
I28
sVnot_R
p76
I11
sVnot_P
p77
I20
sVnot_\ud83d
p78
I10
stRp79
(lp80
I14006
aI0
aI14006
atp81
.