(ccopy_reg
_reconstructor
p1
(cinfo
MyDict
p2
c__builtin__
dict
p3
(dp4
Vnot_not_be
p5
I2
sVall
p6
I5
sVnot_got
p7
I2
sVnot_i have
p8
I2
sVgo
p9
I2
sVhate
p10
I1
sVnot_not_by
p11
I2
sVand a
p12
I2
sVnot_studying
p13
I5
sVnot_when
p14
I14
sVnot_goose
p15
I2
sVgood
p16
I3
sVto
p17
I19
sVnot_before
p18
I2
sVta
p19
I4
sVevery
p20
I2
sVnot_i'll
p21
I2
sVnot_putting
p22
I2
sVnot_a dog
p23
I2
sVnot_looking
p24
I2
sVlevel
p25
I2
sVdid
p26
I1
sVnot_anyone
p27
I3
sVnot_the only
p28
I2
sVnot_to be
p29
I2
sVnot_i think
p30
I2
sVnot_too
p31
I2
sVnot_back
p32
I3
sVnot_not_the
p33
I12
sVnot_due
p34
I1
sVwall street
p35
I2
sVnot_time for
p36
I2
sVnot_because
p37
I4
sVstreet
p38
I2
sVnot_not_to
p39
I5
sVnot_gpa
p40
I2
sVnot_not_take
p41
I2
sVnot_by
p42
I2
sVnot_canada goose
p43
I2
sVnot_did
p44
I2
sVnot_time
p45
I5
sVnot_be
p46
I8
sVever
p47
I2
sVnot_yourself
p48
I2
sVnot_can't
p49
I7
sVnever
p50
I2
sVnot_better
p51
I2
sVhours
p52
I3
sVnot_through
p53
I3
sVnot_i'm
p54
I4
sVnot_thought
p55
I2
sVstudy
p56
I2
sVnot_not_with
p57
I3
sVnot_hotelie
p58
I3
sVduring finals
p59
I1
sVnot_next
p60
I1
sVnot_moment when
p61
I2
sVi'm
p62
I7
sVnot_one
p63
I2
sVnot_study
p64
I4
sVnot_this
p65
I6
sVis that
p66
I2
sVnot_procrastination level just
p67
I2
sVi was
p68
I2
sVnot_awful
p69
I2
sVof my
p70
I2
sVnot_coffee
p71
I1
sVon trivia crack
p72
I2
sVnot_yik
p73
I2
sVyourself
p74
I1
sVnot_campus
p75
I1
sVsanjay
p76
I3
sVwould
p77
I1
sVnot_could
p78
I1
sVnot_the
p79
I47
sVnot_get
p80
I11
sVnot_keep
p81
I2
sVmore
p82
I2
sVi believe
p83
I2
sVnot_and
p84
I21
sVi just
p85
I2
sVnot_any
p86
I2
sVnot_had
p87
I2
sVme
p88
I3
sVyik yak
p89
I3
sVnot_long
p90
I2
sVthis
p91
I6
sVnot_not_phone
p92
I2
sVcan
p93
I2
sVthis is
p94
I1
sVmy
p95
I12
sVnot_exam
p96
I2
sVbeautiful
p97
I2
sVnot_finals but
p98
I2
sVnot_most
p99
I3
sVnot_phone
p100
I1
sVin
p101
I17
sVfuck
p102
I1
sVnot_like a
p103
I2
sVnot_when i
p104
I2
sVwant
p105
I3
sVnot_want
p106
I5
sVnot_i've
p107
I2
sVnot_while
p108
I2
sVnot_out
p109
I7
sVproductive
p110
I2
sVsit
p111
I2
sVhotelie
p112
I1
sVnot_trying
p113
I2
sVhow
p114
I1
sVanswer
p115
I1
sVif
p116
I4
sVto the
p117
I1
sVpizza
p118
I2
sVnot_moment
p119
I2
sVnot_not_on
p120
I2
sVnot_doesn't not_even
p121
I2
sVnot_not_of
p122
I3
sVafter
p123
I1
sVsometimes i
p124
I2
sVnot_than
p125
I2
sVnot_not_you
p126
I3
sVnot_poop
p127
I2
sVa
I12
sVnot_there
p128
I2
sVthis final
p129
I2
sVthink
p130
I2
sVnot_not_a
p131
I2
sVso
p132
I3
sVnot_not_i
p133
I3
sVnot_makes
p134
I2
sVnot_not_for
p135
I4
sVdon't
p136
I2
sVnot_already
p137
I2
sVover
p138
I1
sVnot_if you want
p139
I2
sVnot_in ives
p140
I2
sVnot_yaks
p141
I3
sVpaper
p142
I3
sVnot_went
p143
I2
sVduring
p144
I2
sVnot_you gotta
p145
I2
sVnot_3
p146
I3
sVnot_2
p147
I2
sVbefore
p148
I1
sVnot_want to
p149
I3
sVnot_people
p150
I4
sVa final
p151
I2
sVnot_gotta
p152
I2
sVmight
p153
I1
sVnot_never
p154
I3
sVhaven't
p155
I1
sVthen
p156
I2
sVcoffee
p157
I2
sVnot_down the
p158
I2
sVnot_i
p159
I35
sV3
I2
sVnot_sit
p160
I1
sVnot_a
p161
I26
sVnot_was
p162
I6
sVnot
p163
I3
sVnow
p164
I4
sVnot_i want
p165
I1
sVnot_your
p166
I8
sVon yik yak
p167
I2
sVnot_on
p168
I9
sVnot_about
p169
I4
sVnot_of
p170
I13
sVnot_best
p171
I1
sVsomeone
p172
I1
sVnot_you have
p173
I2
sVnot_or
p174
I2
sVluck
p175
I3
sVwith the
p176
I2
sVnot_for the
p177
I2
sVnot_procrastination
p178
I5
sVnot_day
p179
I2
sVnot_have no
p180
I2
sVnot_library
p181
I5
sVnot_not_know
p182
I2
sVnot_bitches
p183
I2
sVnot_i could
p184
I1
sVnot_love
p185
I1
sVnot_upvote
p186
I2
sVnot_i was
p187
I2
sVgot
p188
I1
sVyour finals
p189
I2
sVnot_finals
p190
I10
sVphilosophy
p191
I2
sVreason
p192
I2
sVnot_not_in not_the
p193
I2
sVnot_i just
p194
I3
sVnot_he
p195
I2
sVnot_have
p196
I7
sVnot_do you
p197
I2
sVnot_ever
p198
I2
sVnot_you but
p199
I2
sVcould
p200
I2
sVkeep
p201
I1
sVthing
p202
I2
sVnot_not_all
p203
I2
sVnot_to
p204
I29
sVnot_even
p205
I1
sVnot_ta
p206
I1
sVfirst
p207
I1
sVnot_with the
p208
I2
sVfeel
p209
I1
sVwhen you
p210
I1
sVon the
p211
I2
sVone
p212
I2
sVnot_my not_finals
p213
I1
sVwill
p214
I3
sVnot_now
p215
I4
sVnot_off
p216
I3
sVnot_also
p217
I2
sVopen
p218
I2
sVnot_study for
p219
I3
sVyou're
p220
I2
sVnot_should
p221
I3
sVtheir
p222
I2
sVnot_on my
p223
I2
sVgirls
p224
I2
sVgpa
p225
I1
sVyik
p226
I3
sVto get
p227
I2
sV2
I1
sVthoughts
p228
I2
sVnot_but
p229
I11
sVfinal
p230
I8
sVnot_where
p231
I2
sVthat
p232
I5
sVnot_not_my not_finals
p233
I2
sVnot_i can't
p234
I4
sVnot_in the library
p235
I2
sVbelieve
p236
I2
sVthan
p237
I3
sVnot_my final
p238
I2
sVon every
p239
I2
sVshower
p240
I1
sVnot_kids
p241
I2
sVnot_after
p242
I3
sVnot_not_up
p243
I2
sVand
p244
I15
sVfashion
p245
I2
sVfor the
p246
I2
sVnot_you would
p247
I2
sVnot_fire
p248
I2
sVnot_the library
p249
I5
sVhave
p250
I4
sVnot_i hate
p251
I3
sVany
p252
I2
sVthought
p253
I1
sVi think
p254
I1
sVfashion show
p255
I2
sVnot_shower
p256
I3
sVstudying
p257
I2
sV-
I2
sVon my
p258
I1
sVtrivia
p259
I2
sVnot_someone
p260
I3
sVnot_up with
p261
I2
sVwant to
p262
I2
sVwho
p263
I2
sVnot_moment when you
p264
I2
sVmost
p265
I1
sVnot_fuck
p266
I8
sVnot_a final
p267
I1
sVnot_is that
p268
I1
sVnot_for finals
p269
I2
sVthe
p270
I28
sVnot_used
p271
I2
sVnot_yak
p272
I1
sVnot_during finals
p273
I2
sVsometimes
p274
I2
sVin my
p275
I3
sVdog
p276
I1
sVface
p277
I4
sVnot_hard
p278
I1
sVif you
p279
I1
sVnot_is a
p280
I2
sVshow
p281
I2
sVnot_with
p282
I8
sVnot_to keep
p283
I2
sVnot_paper
p284
I3
sVnot_why
p285
I4
sVnot_not_phone not_in
p286
I2
sVfinals week
p287
I1
sVnot_they're
p288
I2
sVnot_not_to not_the
p289
I2
sVnot_point
p290
I2
sVnot_going to
p291
I1
sVnot_nap
p292
I2
sVfrom the
p293
I1
sVonly
p294
I2
sVgoing
p295
I2
sVnot_haven't
p296
I3
sVnot_more
p297
I1
sVnot_a really
p298
I2
sVnot_if you
p299
I4
sVdo
p300
I1
sVnot_will never
p301
I2
sVget
p302
I4
sVwatch
p303
I2
sVon trivia
p304
I2
sVnot_go
p305
I6
sVprocrastination
p306
I2
sVin ithaca
p307
I2
sVabout a
p308
I2
sVnot_feel
p309
I3
sVnot_take
p310
I2
sVthe vs fashion
p311
I2
sVnot_not_it
p312
I3
sVnot_reyak
p313
I2
sVnot_told
p314
I2
sVnot_not_in
p315
I4
sVvs fashion
p316
I2
sVwhere
p317
I2
sVnot_why is
p318
I2
sVnot_can
p319
I2
sVnot_the first
p320
I2
sVsex
p321
I2
sVnot_not_do
p322
I2
sVare
p323
I5
sVnot_netflix
p324
I1
sVnot_canada
p325
I2
sVnot_only
p326
I4
sVbest
p327
I2
sVi'm in love
p328
I2
sVnot_up
p329
I6
sVnot_because i
p330
I2
sVnot_on the
p331
I2
sVnot_trying to
p332
I2
sVnot_about the
p333
I2
sVnot_shit
p334
I4
sVexam
p335
I1
sVnot_take a
p336
I2
sVnot_final
p337
I6
sVnot_all
p338
I2
sVnot_that i
p339
I2
sVnot_answer
p340
I2
sVnot_getting
p341
I2
sVnot_yet
p342
I3
sVnot_in the
p343
I9
sVnot_just
p344
I12
sVto be
p345
I1
sVnot_say
p346
I2
sVtoilet
p347
I1
sVwall
p348
I2
sVnot_might
p349
I2
sVnot_for
p350
I15
sVnot_students
p351
I2
sVbathroom
p352
I2
sVin love
p353
I2
sVnot_you want to
p354
I2
sVit's
p355
I2
sVdue
p356
I2
sVnot_dog
p357
I2
sVgoing to
p358
I2
sVnot_internet
p359
I2
sVyak
p360
I4
sVnot_at
p361
I3
sVnot_cornell
p362
I5
sVnot_be quiet
p363
I2
sVnot_it's
p364
I5
sVnot_around
p365
I1
sVtrying to
p366
I1
sVnot_procrastinating
p367
I1
sVi have
p368
I1
sVnot_not_i'm
p369
I2
sVnot_you want
p370
I2
sVnot_see
p371
I2
sVnot_much
p372
I2
sVstraight
p373
I2
sVnot_not_my
p374
I4
sVnot_not_but
p375
I2
sVnot_not_me
p376
I2
sVnot_papers
p377
I2
sVnot_chi
p378
I2
sVcoco
p379
I2
sVnot_me you
p380
I2
sVnot_does
p381
I2
sVis
p382
I14
sVnot_doesn't
p383
I4
sVit
p384
I5
sVnot_from the
p385
I2
sVnot_you look
p386
I2
sVvs
p387
I2
sVnot_thing
p388
I3
sVnot_think
p389
I3
sVnot_would
p390
I5
sVnot_look like
p391
I2
sVnot_like
p392
I10
sVmy final
p393
I2
sVnot_procrastination level
p394
I4
sVthings
p395
I2
sVnot_be a
p396
I2
sVnot_days
p397
I1
sVweek
p398
I1
sVnot_how
p399
I4
sVnot_down
p400
I4
sVnot_extra
p401
I2
sVnot_first
p402
I3
sVnot_not
p403
I5
sVbe a
p404
I2
sVnot_in
p405
I21
sVoff
p406
I1
sVi
I25
sVnot_if
p407
I6
sVnot_school
p408
I5
sVnot_don't
p409
I3
sVnot_ives
p410
I2
sVnot_of the
p411
I2
sVnot_it
p412
I6
sVnot_is
p413
I15
sVnot_for my
p414
I2
sVnot_do
p415
I5
sVjust
p416
I8
sVnot_who
p417
I6
sVlove
p418
I3
sVmy face
p419
I3
sVithaca
p420
I2
sVstudy for
p421
I1
sVnot_are
p422
I9
sVnot_they
p423
I4
sVnot_during
p424
I2
sVhad
p425
I1
sVday
p426
I1
sVthink i
p427
I2
sVcrack
p428
I2
sVnot_them
p429
I3
sVnot_then
p430
I3
sVaround
p431
I2
sVread
p432
I2
sVnot_get a
p433
I2
sVnot_realized
p434
I2
sVthat i
p435
I1
sVknow
p436
I1
sVin the
p437
I5
sVnot_not_and
p438
I3
sVlike
p439
I3
sVtrivia crack
p440
I2
sVnot_hate
p441
I3
sVnot_i did
p442
I2
sVnot_level just
p443
I2
sVnot_test
p444
I2
sVnot_not_study
p445
I2
sVnot_not_when
p446
I3
sVnot_today
p447
I2
sVi could
p448
I2
sVright
p449
I2
sVnot_that's
p450
I2
sVpeople
p451
I1
sVnot_professor
p452
I2
sVback
p453
I2
sVlibrary
p454
I1
sVnot_over
p455
I2
sVnot_open
p456
I1
sVfor
p457
I12
sVyaks
p458
I1
sVnot_look
p459
I2
sVnot_level
p460
I5
sVnot_to get
p461
I2
sVbe
p462
I4
sVnot_not_even
p463
I2
sVfrom
p464
I2
sVnot_morning
p465
I2
sVon
p466
I17
sVabout
p467
I3
sVnot_actually
p468
I2
sVnot_will
p469
I3
sVnetflix
p470
I2
sVof
p471
I10
sVnot_my
p472
I17
sVnot_their
p473
I4
sVi'm in
p474
I3
sVnot_what
p475
I2
sVimportant
p476
I3
sVwolf
p477
I2
sVnot_me
p478
I13
sVi am
p479
I3
sVor
p480
I2
sVnot_when you
p481
I5
sVnot_you know
p482
I4
sVnot_quiet
p483
I2
sVnot_not_by not_finals
p484
I2
sVnot_not_procrastinating
p485
I2
sVdown
p486
I1
sVnot_really
p487
I3
sVbecause
p488
I2
sVnot_girls
p489
I2
sVgood luck
p490
I2
sVnot_that
p491
I11
sVyour
p492
I8
sVnot_depression
p493
I2
sVnot_so
p494
I6
sVher
p495
I2
sVnot_ordered
p496
I2
sVthere
p497
I1
sVnot_but it's
p498
I2
sVlong
p499
I1
sVwhy
p500
I2
sVnot_roommate
p501
I3
sVnot_you look like
p502
I2
sVhouse
p503
I2
sVwas
p504
I3
sVnot_not_finals
p505
I6
sVnot_to the
p506
I4
sVi've
p507
I1
sVprocrastination level
p508
I1
sVbut
p509
I4
sVnot_right
p510
I1
sVnot_finals week
p511
I2
sVtrying
p512
I1
sVwith
p513
I7
sVnot_this is
p514
I2
sVhe
p515
I1
sVnot_textbook
p516
I2
sVnot_thanks
p517
I2
sVup
p518
I2
sVnot_important
p519
I1
sVnot_you
p520
I23
sVnot_i should
p521
I2
sVi want
p522
I2
sVnot_week
p523
I2
sVvs fashion show
p524
I2
sVnot_book
p525
I2
sVon yik
p526
I2
sVnot_semester
p527
I2
sVnot_good
p528
I3
sVam
p529
I3
sVtextbook
p530
I1
sVan
p531
I1
sVthe only
p532
I1
sVas
p533
I2
sVat
p534
I2
sVnot_going
p535
I1
sVcampus
p536
I2
sVnot_from
p537
I5
sVnot_no
p538
I9
sVnot_review
p539
I2
sVno
p540
I1
sVwhen
p541
I2
sVnot_am i
p542
I3
sVnot_hours
p543
I2
sVmore important
p544
I2
sVyou
p545
I11
sVout
p546
I3
sVpoop
p547
I1
sVnot_know
p548
I7
sVnot_an
p549
I7
sVnot_am
p550
I3
sVnot_from me
p551
I2
sVnot_toilet
p552
I3
sVnot_as
p553
I3
sVnot_future
p554
I3
sVfinals
p555
I6
sVnot_when your
p556
I4
sVnot_can get
p557
I2
sVthe vs
p558
I2
sVtime
p559
I3
stRp560
g1
(g2
g3
(dp561
Vnot_not_be
p562
I1
sVall
p563
I2
sVnot_had
p564
I2
sVnot_i have
p565
I1
sVnot_procrastinating
p566
I3
sVgo
p567
I5
sVhate
p568
I3
sVnot_studying
p569
I2
sVnot_who
p570
I3
sVnot_when
p571
I5
sVto
p572
I28
sVup with
p573
I2
sVnot_before
p574
I2
sVnot_every
p575
I2
sVta
p576
I1
sVnot_productive
p577
I2
sVputting
p578
I2
sVawful
p579
I2
sVbecause i
p580
I2
sVnot_her
p581
I2
sVa final
p582
I1
sVi can't
p583
I4
sVschool
p584
I4
sVlevel
p585
I5
sVdid
p586
I2
sVnot_the only
p587
I1
sVnot_to be
p588
I1
sVnot_i think
p589
I1
sVnot_too
p590
I1
sVnot_back
p591
I2
sVnot_sanjay
p592
I3
sVnot_due
p593
I3
sVprocrastination level just
p594
I2
sVnot_because
p595
I3
sVnot_your finals
p596
I2
sVdepression
p597
I2
sVnot_not_to
p598
I1
sVnot_gpa
p599
I1
sVnot_by
p600
I2
sVnot_did
p601
I1
sVreyak
p602
I2
sVnot_time
p603
I3
sVnot_philosophy
p604
I2
sVnot_be
p605
I6
sVever
p606
I2
sVtold
p607
I2
sVnot_yourself
p608
I1
sVnot_on trivia
p609
I2
sVnever
p610
I3
sVnot_better
p611
I1
sVhours
p612
I2
sVthem
p613
I2
sVnot_i'm
p614
I9
sVnot_thought
p615
I1
sVkids
p616
I2
sVwhen i
p617
I2
sVstudy
p618
I4
sVnot_not_with
p619
I2
sVnot_fashion
p620
I2
sVnot_hotelie
p621
I1
sVam i
p622
I3
sVnot_next
p623
I2
sVi'm
p624
I4
sVmakes
p625
I2
sVnot_one
p626
I3
sVnot_study
p627
I4
sVnot_this
p628
I7
sVextra
p629
I2
sVis that
p630
I1
sVi was
p631
I2
sVsemester
p632
I2
sVnot_feel
p633
I1
sVnot_coffee
p634
I2
sVnot_going to
p635
I2
sVnot_yik
p636
I3
sVnot_campus
p637
I2
sVfrom
p638
I5
sVwould
p639
I5
sVnot_could
p640
I2
sVchi
p641
I2
sVnot_room
p642
I2
sVnot_the
p643
I40
sVnot_get
p644
I4
sVnot_keep
p645
I1
sVmore
p646
I1
sVon
p647
I7
sVnot_and
p648
I18
sVi just
p649
I3
sVnot_any
p650
I2
sVnot_i believe
p651
I2
sVthe first
p652
I2
sVme
p653
I12
sVtime for
p654
I2
sVnot_long
p655
I1
sVnot_ever
p656
I2
sVthis
p657
I6
sVgetting
p658
I2
sVcan
p659
I2
sVnot_wall street
p660
I2
sVthis is
p661
I2
sVmy
p662
I15
sVnot_exam
p663
I1
sVnot_most
p664
I1
sVnot_phone
p665
I2
sVin
p666
I21
sVfuck
p667
I8
sVnow
p668
I4
sVnot_phone not_in
p669
I2
sVnot_sit
p670
I2
sVwant
p671
I5
sVnot_want
p672
I4
sVnot_i've
p673
I1
sVnot_out
p674
I3
sVnot_bathroom
p675
I2
sVsit
p676
I1
sVto keep
p677
I2
sVhotelie
p678
I3
sVnot_trying
p679
I1
sVhow
p680
I4
sVanswer
p681
I2
sVto the
p682
I4
sVnot_not_on
p683
I2
sVnot_not_of
p684
I1
sVafter
p685
I3
sVnot_not_you
p686
I1
sVnot_poop
p687
I1
sVi hate
p688
I3
sVa
I25
sVrealized
p689
I2
sVnot_vs fashion show
p690
I2
sVthink
p691
I3
sVnot_not_a
p692
I1
sVso
p693
I6
sVthat's
p694
I2
sVnot_-
p695
I2
sVnot_in my
p696
I3
sVdon't
p697
I3
sVover
p698
I2
sVnot_yaks
p699
I1
sVpaper
p700
I3
sVthrough
p701
I3
sVnot_3
p702
I3
sVnot_2
p703
I2
sVbefore
p704
I2
sVfrom me
p705
I2
sVnot_want to
p706
I2
sVnot_people
p707
I2
sVtrying
p708
I2
sVnot_show
p709
I3
sVactually
p710
I2
sVnot_days
p711
I2
sVnot_my face
p712
I3
sVmight
p713
I2
sVnot_never
p714
I3
sVhaven't
p715
I3
sVthen
p716
I3
sVcoffee
p717
I1
sVgood
p718
I2
sVnot_i
p719
I28
sVnot_a
p720
I14
sVroommate
p721
I3
sVthey
p722
I4
sVnot
p723
I5
sVyourself
p724
I2
sVnot_i want
p725
I2
sVnot_your
p726
I9
sVnot_more important
p727
I2
sVnot_house
p728
I2
sVnot_about
p729
I4
sVnot_face
p730
I4
sVif you want
p731
I2
sVnot_of
p732
I13
sVnot_best
p733
I2
sVwent
p734
I2
sVnot_or
p735
I2
sVout
p736
I6
sVi should
p737
I2
sVwith the
p738
I2
sVgoose
p739
I2
sVnot_for the
p740
I2
sVnot_procrastination
p741
I2
sVnot_off
p742
I2
sVreally
p743
I3
sVcanada
p744
I2
sVnot_library
p745
I1
sVnot_review
p746
I1
sVnot_i could
p747
I2
sVnot_love
p748
I3
sVlooking
p749
I2
sVnot_i was
p750
I2
sVgot
p751
I2
sVnot_finals
p752
I12
sVlook like
p753
I2
sVdo you
p754
I2
sVnot_the vs fashion
p755
I2
sVnot_know
p756
I3
sVnot_i just
p757
I2
sVnot_he
p758
I1
sVnot_about a
p759
I2
sVnot_have
p760
I5
sVgpa
p761
I2
sVnot_sometimes i
p762
I2
sVnot_reason
p763
I2
sVcould
p764
I1
sVnot_i am
p765
I3
sVkeep
p766
I2
sVthing
p767
I3
sVnot_to
p768
I24
sVnot_even
p769
I3
sVnot_ta
p770
I4
sVfirst
p771
I3
sVi'll
p772
I2
sValready
p773
I2
sVnot_with the
p774
I2
sVfeel
p775
I2
sVwhen you
p776
I5
sVon the
p777
I2
sVbut it's
p778
I2
sVone
p779
I2
sVnot_this final
p780
I2
sVwill
p781
I2
sVnot_now
p782
I5
sVnot_coco
p783
I2
sVopen
p784
I1
sVnot_study for
p785
I1
sVyou gotta
p786
I2
sVdoesn't
p787
I4
sVnot_crack
p788
I2
sVto get
p789
I2
sVnot_on my
p790
I1
sVyou look like
p791
I2
sVgirls
p792
I1
sVnot_there
p793
I1
sVanyone
p794
I3
sVtheir
p795
I3
sV2
I2
sVwhen your
p796
I4
sVmoment when you
p797
I2
sVfinal
p798
I6
sVnot_where
p799
I2
sVnot_of my
p800
I2
sVthat
p801
I10
sVnot_not_my not_finals
p802
I1
sVthan
p803
I2
sVnot_my final
p804
I2
sVgotta
p805
I2
sVbe quiet
p806
I2
sVhave no
p807
I2
sVshower
p808
I2
sVfuture
p809
I2
sVnot_in ithaca
p810
I2
sVnot_after
p811
I1
sVand
p812
I21
sVfor the
p813
I2
sVyou know
p814
I4
sVsay
p815
I2
sVhave
p816
I7
sVany
p817
I2
sVi think
p818
I2
sVnot_shower
p819
I2
sVstudying
p820
I4
sValso
p821
I2
sVtake
p822
I2
sVget a
p823
I2
sVnot_someone
p824
I1
sVwant to
p825
I3
sVwho
p826
I6
sVmost
p827
I3
sVnot_fuck
p828
I2
sVnot_a final
p829
I2
sVnot_is that
p830
I2
sVwhy
p831
I4
sVnot_yak
p832
I4
sVnot_during finals
p833
I1
sVprofessor
p834
I2
sVnot_sometimes
p835
I2
sVnot_hard
p836
I2
sVnot_youtube
p837
I2
sVfor my
p838
I2
sVif you
p839
I4
sVnot_on trivia crack
p840
I2
sVnot_vs fashion
p841
I2
sVnot_with
p842
I10
sVnot_paper
p843
I3
sVnot_why
p844
I2
sVfinals week
p845
I2
sVnot_later
p846
I2
sVyou but
p847
I2
sVnot_things
p848
I2
sVnot_not_for
p849
I1
sVyou want
p850
I2
sV3
I3
sVshould
p851
I3
sVfrom the
p852
I2
sVonly
p853
I4
sVgoing
p854
I1
sVnot_haven't
p855
I1
sVnot_more
p856
I2
sVnot_if you
p857
I1
sVdo
p858
I4
sVyou would
p859
I2
sVget
p860
I10
sVnot_go
p861
I2
sVprocrastination
p862
I5
sVduring
p863
I2
sVnot_take
p864
I2
sVnot_not_is
p865
I2
sVnot_not_it
p866
I1
sVmorning
p867
I2
sVwhere
p868
I2
sVnot_yik yak
p869
I3
sVthe library
p870
I5
sVnot_watch
p871
I3
sVnot_can
p872
I2
sVnot_not_do
p873
I1
sVare
p874
I9
sVnot_netflix
p875
I2
sVnot_only
p876
I2
sVbest
p877
I1
sVnot_think i
p878
I2
sVin ives
p879
I2
sVreview
p880
I2
sVnot_up
p881
I4
sVnot_the vs
p882
I2
sVnot_believe
p883
I2
sVnot_on the
p884
I2
sVnot_trying to
p885
I1
sVexam
p886
I2
sVnot_final
p887
I9
sVnot_all
p888
I7
sVnot_that i
p889
I1
sVnot_answer
p890
I1
sVnot_getting
p891
I1
sVnot_i'm in
p892
I3
sVquiet
p893
I2
sVcanada goose
p894
I2
sVnot_they
p895
I1
sVnot_in the
p896
I5
sVnot_just
p897
I9
sVto be
p898
I2
sVcan't
p899
I7
sVnot_straight
p900
I2
sVpoint
p901
I2
sVnot_to not_the
p902
I2
sVnot_might
p903
I1
sVnot_for
p904
I16
sVmoment when
p905
I2
sVnot_and a
p906
I2
sVa dog
p907
I2
sVnot_wolf
p908
I2
sVnot_into
p909
I2
sVyou have
p910
I2
sVit's
p911
I5
sVdue
p912
I1
sVnot_dog
p913
I1
sVgoing to
p914
I1
sVmuch
p915
I2
sVnot_to the
p916
I1
sVimportant
p917
I1
sVdoesn't not_even
p918
I2
sVfire
p919
I2
sVnot_it's
p920
I3
sVnot_in not_the
p921
I2
sVnot_around
p922
I2
sVtrying to
p923
I2
sVnot_trivia
p924
I2
sVi have
p925
I2
sVlook
p926
I2
sVnot_see
p927
I1
sVnot_not_the
p928
I1
sVnot_not_my
p929
I2
sVnot_not_but
p930
I1
sVnot_not_me
p931
I1
sVives
p932
I2
sVwhile
p933
I2
sVnot_sex
p934
I2
sVnot_not_yik
p935
I2
sVis
p936
I13
sVit
p937
I5
sVnot_from the
p938
I1
sVsomeone
p939
I3
sVnot_thing
p940
I2
sVnot_think
p941
I2
sVnot_would
p942
I1
sVif
p943
I6
sVnot_trivia crack
p944
I2
sVnot_like
p945
I3
sVmy final
p946
I2
sVnot_procrastination level
p947
I1
sVnot_fashion show
p948
I2
sVnot_be a
p949
I2
sVnot_you're
p950
I3
sVme you
p951
I2
sVweek
p952
I2
sVused
p953
I2
sVnot_how
p954
I1
sVnot_down
p955
I1
sVmoment
p956
I2
sVnot_first
p957
I1
sVnot_not
p958
I3
sVbe a
p959
I2
sVnot_in
p960
I21
sVoff
p961
I2
sVi
I35
sVnot_if
p962
I4
sVnot_pizza
p963
I2
sVthought
p964
I2
sVnot_don't
p965
I2
sVnot_on every
p966
I2
sVabout the
p967
I2
sVthe
p968
I46
sVnot_it
p969
I8
sVnot_is
p970
I14
sVnot_do
p971
I3
sVnot_was
p972
I4
sVjust
p973
I12
sVnot_on yik
p974
I2
sVnot_wall
p975
I2
sVnot_season
p976
I2
sVthanks
p977
I2
sVlove
p978
I1
sVyet
p979
I2
sVstudy for
p980
I3
sVnot_are
p981
I6
sVof the
p982
I2
sVyou look
p983
I2
sVa really
p984
I2
sVcornell
p985
I5
sVnot_during
p986
I2
sVhad
p987
I2
sVnot_hours
p988
I3
sVday
p989
I2
sVnot_in love
p990
I2
sVnot_my not_finals
p991
I2
sVnot_then
p992
I3
sVaround
p993
I1
sVnot_by not_finals
p994
I2
sVis a
p995
I2
sVin the library
p996
I2
sVthat i
p997
I2
sVknow
p998
I7
sVin the
p999
I9
sVnot_vs
p1000
I2
sVlike
p1001
I9
sVnot_on
p1002
I19
sVnot_hate
p1003
I1
sVnot_two
p1004
I2
sVnot_not_when
p1005
I1
sVnot_today
p1006
I1
sVi could
p1007
I1
sVright
p1008
I1
sVnot_thoughts
p1009
I2
sVpeople
p1010
I4
sVwhy is
p1011
I2
sVlibrary
p1012
I5
sVnot_over
p1013
I1
sVnot_open
p1014
I2
sVnot_except
p1015
I2
sVfor
p1016
I14
sVyaks
p1017
I2
sVnot_got
p1018
I2
sVnot_ithaca
p1019
I2
sVnot_level
p1020
I2
sVdoes
p1021
I2
sVnot_to get
p1022
I2
sVbe
p1023
I7
sVi did
p1024
I2
sVby
p1025
I2
sVnot_luck
p1026
I3
sVabout
p1027
I4
sVnot_will
p1028
I4
sVnetflix
p1029
I1
sVof
p1030
I12
sVnot_my
p1031
I16
sVnot_their
p1032
I3
sVlike a
p1033
I2
sVnot_what
p1034
I1
sVnot_toilet
p1035
I1
sVnot_me
p1036
I5
sVor
p1037
I2
sVnot_when you
p1038
I1
sVnot_than
p1039
I3
sVnot_beautiful
p1040
I2
sVnot_not_no
p1041
I3
sVdown
p1042
I3
sVnot_really
p1043
I1
sVbecause
p1044
I4
sVnot_girls
p1045
I2
sVnot_that
p1046
I6
sVnot_i'm in love
p1047
I2
sVyour
p1048
I8
sVcan get
p1049
I2
sVnot_so
p1050
I4
sVthere
p1051
I2
sVlong
p1052
I2
sVfinals
p1053
I9
sVnot_but
p1054
I6
sVwas
p1055
I6
sVnot_not_finals
p1056
I1
sVi've
p1057
I2
sVnot_street
p1058
I2
sVbitches
p1059
I2
sVprocrastination level
p1060
I4
sVbut
p1061
I10
sVback
p1062
I3
sVnot_right
p1063
I2
sVnot_finals week
p1064
I1
sVnot_on yik yak
p1065
I2
sVwith
p1066
I6
sVnot_this is
p1067
I1
sVnot_read
p1068
I2
sVhe
p1069
I2
sVnot_textbook
p1070
I1
sVthey're
p1071
I2
sVup
p1072
I6
sVnot_important
p1073
I3
sVnot_you
p1074
I14
sVdown the
p1075
I2
sVi want
p1076
I1
sVnot_week
p1077
I2
sVtake a
p1078
I2
sVtoilet
p1079
I3
sVordered
p1080
I2
sVnot_good luck
p1081
I2
sVnot_good
p1082
I3
sVam
p1083
I3
sVtextbook
p1084
I2
sVan
p1085
I7
sVthe only
p1086
I2
sVas
p1087
I3
sVyou want to
p1088
I2
sVat
p1089
I3
sVnot_going
p1090
I2
sVcampus
p1091
I1
sVshit
p1092
I4
sVnot_from
p1093
I2
sVnot_no
p1094
I1
sVno
p1095
I6
sVwhen
p1096
I13
sVon my
p1097
I2
sVnap
p1098
I2
sVbook
p1099
I2
sVpapers
p1100
I2
sVtest
p1101
I2
sVyou
p1102
I22
sVnot_day
p1103
I2
sVpoop
p1104
I2
sVduring finals
p1105
I2
sVstudents
p1106
I2
sVnot_an
p1107
I1
sVnot_am
p1108
I3
sVlevel just
p1109
I2
sVnot_at
p1110
I2
sVnot_as
p1111
I3
sVfor finals
p1112
I2
sVnot_wait
p1113
I2
sVdog
p1114
I2
sVtime
p1115
I5
sVwill never
p1116
I2
stRp1117
(dp1118
S'neg'
p1119
I1902
sS'pos'
p1120
I1875
stp1121
.